; Function Attrs: mustprogress uwtable
define hidden void @_ZNK3ue233RoseInstrCheckMultipathShufti16x85writeEPvRNS_14RoseEngineBlobERKSt13unordered_mapIPKNS_15RoseInstructionEjSt4hashIS7_ESt8equal_toIS7_ESaISt4pairIKS7_jEEE(ptr noundef nonnull align 8 dereferenceable(192) %0, ptr noundef writeonly captures(none) initializes((0, 92)) %1, ptr nonnull readnone align 8 captures(none) %2, ptr noundef nonnull readonly align 8 captures(none) dereferenceable(56) %3) unnamed_addr #5 align 2 personality ptr @__gxx_personality_v0 {
  tail call void @llvm.memset.p0.i64(ptr noundef nonnull align 4 dereferenceable(92) %1, i8 0, i64 92, i1 false)
  store i8 57, ptr %1, align 4
  %5 = getelementptr inbounds nuw i8, ptr %0, i64 8
  %6 = getelementptr inbounds nuw i8, ptr %1, i64 1
  tail call void @llvm.memmove.p0.p0.i64(ptr noundef nonnull align 1 dereferenceable(32) %6, ptr noundef nonnull align 8 dereferenceable(32) %5, i64 32, i1 false)
  %7 = getelementptr inbounds nuw i8, ptr %0, i64 40
  %8 = getelementptr inbounds nuw i8, ptr %1, i64 33
  tail call void @llvm.memmove.p0.p0.i64(ptr noundef nonnull align 1 dereferenceable(16) %8, ptr noundef nonnull align 8 dereferenceable(16) %7, i64 16, i1 false)
  %9 = getelementptr inbounds nuw i8, ptr %0, i64 104
  %10 = getelementptr inbounds nuw i8, ptr %1, i64 49
  tail call void @llvm.memmove.p0.p0.i64(ptr noundef nonnull align 1 dereferenceable(16) %10, ptr noundef nonnull align 8 dereferenceable(16) %9, i64 16, i1 false)
  %11 = getelementptr inbounds nuw i8, ptr %0, i64 168
  %12 = load i16, ptr %11, align 8
  %13 = zext i16 %12 to i32
  %14 = getelementptr inbounds nuw i8, ptr %1, i64 68
  store i32 %13, ptr %14, align 4
  %15 = getelementptr inbounds nuw i8, ptr %0, i64 170
  %16 = load i16, ptr %15, align 2
  %17 = zext i16 %16 to i32
  %18 = getelementptr inbounds nuw i8, ptr %1, i64 72
  store i32 %17, ptr %18, align 4
  %19 = getelementptr inbounds nuw i8, ptr %0, i64 172
  %20 = load i16, ptr %19, align 4
  %21 = zext i16 %20 to i32
  %22 = getelementptr inbounds nuw i8, ptr %1, i64 76
  store i32 %21, ptr %22, align 4
  %23 = getelementptr inbounds nuw i8, ptr %0, i64 176
  %24 = load i32, ptr %23, align 8
  %25 = getelementptr inbounds nuw i8, ptr %1, i64 80
  store i32 %24, ptr %25, align 4
  %26 = getelementptr inbounds nuw i8, ptr %0, i64 180
  %27 = load i32, ptr %26, align 4
  %28 = getelementptr inbounds nuw i8, ptr %1, i64 84
  store i32 %27, ptr %28, align 4
  %29 = getelementptr inbounds nuw i8, ptr %0, i64 184
  %30 = load ptr, ptr %29, align 8
  %31 = tail call fastcc noundef i32 @_ZN3ue2L9calc_jumpERKSt13unordered_mapIPKNS_15RoseInstructionEjSt4hashIS3_ESt8equal_toIS3_ESaISt4pairIKS3_jEEES3_S3_(ptr noundef nonnull align 8 dereferenceable(56) %3, ptr noundef %0, ptr noundef %30)
  %32 = getelementptr inbounds nuw i8, ptr %1, i64 88
  store i32 %31, ptr %32, align 4
  ret void
}